Certificate:
    Data:
        Version: 3 (0x2)
        Serial Number:
            31:3d:36:05:84:46:46:34:5b:22:50:04:0b:60:15:32
        Signature Algorithm: sha256WithRSAEncryption
        Issuer: C = EE, O = AS Sertifitseerimiskeskus, organizationIdentifier = NTREE-10747013, CN = TEST of ESTEID-SK 2015
        Validity
            Not Before: Jun 14 11:22:44 2018 GMT
            Not After : Jun 13 20:59:59 2023 GMT
        Subject: C = EE, O = ESTEID, OU = authentication, CN = "\C5\BDAIKOVSKI,IGOR,37101010021", SN = \C5\BDAIKOVSKI, GN = IGOR, serialNumber = 37101010021
        Subject Public Key Info:
            Public Key Algorithm: id-ecPublicKey
                Public-Key: (384 bit)
                pub:
                    04:11:f1:1b:a2:07:51:66:07:f8:e2:ca:67:81:91:
                    fa:d1:fa:d1:62:45:6f:cc:8c:1b:00:40:b7:44:fc:
                    d7:0c:5e:8d:ef:30:34:ce:a1:be:e8:11:2f:82:06:
                    c8:e6:b8:8f:22:9f:fe:9d:b8:ca:54:d8:15:d8:da:
                    e8:45:dc:50:2f:61:79:cb:a2:3c:be:fe:84:f2:61:
                    36:38:50:20:06:44:f0:cc:69:f7:ff:18:bb:7c:96:
                    45:dc:97:be:bb:85:3e
                ASN1 OID: secp384r1
                NIST CURVE: P-384
        X509v3 extensions:
            X509v3 Basic Constraints: 
                CA:FALSE
            X509v3 Key Usage: critical
                Digital Signature, Key Agreement
            X509v3 Certificate Policies: 
                Policy: 1.3.6.1.4.1.10015.3.1
                  CPS: https://www.sk.ee/repositoorium/CPS
                  User Notice:
                    Explicit Text: Ainult testimiseks. Only for testing.
                Policy: 0.4.0.2042.1.2

            X509v3 Subject Alternative Name: 
                email:igor.zaikovski@eesti.ee
            X509v3 Subject Key Identifier: 
                7B:13:50:C7:D1:B0:D4:E7:DA:DB:A9:A9:90:F9:C6:20:F8:8C:A4:CE
            qcStatements: 
                0S0Q.....F..0G0E.?https://sk.ee/en/repository/conditions-for-use-of-certificates/..EN
            X509v3 Extended Key Usage: critical
                TLS Web Client Authentication, E-mail Protection
            X509v3 Authority Key Identifier: 
                keyid:49:C0:F2:44:39:65:D5:9B:46:3B:0D:38:60:83:B1:D6:2D:28:86:A6

            Authority Information Access: 
                OCSP - URI:http://aia.demo.sk.ee/esteid2015
                CA Issuers - URI:https://sk.ee/upload/files/TEST_of_ESTEID-SK_2015.der.crt

            X509v3 CRL Distribution Points: 

                Full Name:
                  URI:https://c.sk.ee/test_esteid2015.crl

    Signature Algorithm: sha256WithRSAEncryption
         23:f0:b3:b0:78:b0:88:81:dc:ec:d4:13:94:37:9e:b9:64:04:
         26:4d:6d:ec:d8:45:b2:d7:53:45:df:b4:8f:f7:0f:6c:9c:57:
         d4:04:d1:87:20:9e:e1:40:24:b5:82:1b:fc:f7:af:53:60:95:
         d8:1a:54:2a:5d:79:35:1a:48:01:01:09:3e:b7:50:5a:01:1d:
         f7:27:40:2b:64:c0:03:c5:e7:50:6a:8d:57:fb:f8:97:bf:8b:
         59:46:0b:31:63:91:0d:67:3b:51:e5:59:91:4e:38:04:6c:f7:
         76:a3:79:6b:49:34:f4:b5:e6:ac:52:d0:29:98:89:db:fd:4f:
         58:1f:f5:b1:94:8f:0e:1a:dd:6a:1f:94:66:74:b0:92:69:a0:
         98:89:22:07:90:80:0b:9f:4e:2b:0d:09:ba:bd:1a:50:32:01:
         bb:90:8a:07:ab:f3:31:7d:36:4d:78:f6:c2:8c:74:23:1b:47:
         e1:85:4c:fd:dc:79:40:e0:96:dd:fe:1d:6a:98:fa:c8:c1:89:
         56:77:b6:6c:ef:99:ed:0a:8e:e8:a0:f4:3a:2b:3a:82:f7:3f:
         39:86:51:2f:b3:94:4f:3e:04:b9:e6:58:aa:7f:95:c7:4f:f1:
         50:86:24:71:81:43:eb:5c:13:da:bc:fd:23:fe:9c:00:d8:a4:
         81:a3:58:48:7a:31:86:e9:8f:15:ce:04:ff:48:00:05:6a:9a:
         74:92:c7:24:b9:ad:8e:63:71:8b:b6:15:3a:61:4a:02:15:87:
         ed:de:e1:09:62:36:30:33:56:59:f2:f7:35:53:8c:87:61:69:
         ca:6e:5d:f9:d5:08:9a:db:fb:48:8c:5e:18:af:1e:0e:68:8f:
         8c:30:f2:eb:98:1f:82:b2:82:0f:42:4d:46:3a:1e:b4:46:58:
         e1:13:e8:c4:00:0d:74:ee:4a:98:f1:81:2f:8d:54:b0:4c:a6:
         09:ca:5c:f8:12:6d:60:d7:b1:52:32:b6:3c:63:f6:5a:84:b2:
         a2:d8:98:2d:0d:34:8b:a9:69:d4:7f:50:0f:09:36:4d:9a:d7:
         0b:ee:aa:b1:1f:f5:81:fd:ab:f8:9d:03:8f:e8:f0:03:8b:8b:
         a2:d0:e7:8b:80:64:fe:c6:e0:0d:18:07:2f:bd:49:44:b2:a3:
         8b:4b:cf:df:82:51:3b:d7:ba:f9:82:df:4e:f5:73:0b:c4:b4:
         2e:65:9f:e4:4a:6e:b6:86:be:9d:9e:dd:83:0b:2e:cf:c7:8c:
         16:65:61:95:de:ed:7d:8c:4a:a4:d2:fb:cf:9b:02:d2:02:c8:
         4d:4b:22:8e:eb:14:fa:02:a3:ad:d5:2e:a3:f3:b1:eb:20:4e:
         49:29:84:fc:c0:81:54:14
-----BEGIN CERTIFICATE-----
MIIGMTCCBBmgAwIBAgIQMT02BYRGRjRbIlAEC2AVMjANBgkqhkiG9w0BAQsFADBr
MQswCQYDVQQGEwJFRTEiMCAGA1UECgwZQVMgU2VydGlmaXRzZWVyaW1pc2tlc2t1
czEXMBUGA1UEYQwOTlRSRUUtMTA3NDcwMTMxHzAdBgNVBAMMFlRFU1Qgb2YgRVNU
RUlELVNLIDIwMTUwHhcNMTgwNjE0MTEyMjQ0WhcNMjMwNjEzMjA1OTU5WjCBlzEL
MAkGA1UEBhMCRUUxDzANBgNVBAoMBkVTVEVJRDEXMBUGA1UECwwOYXV0aGVudGlj
YXRpb24xJDAiBgNVBAMMG8W9QUlLT1ZTS0ksSUdPUiwzNzEwMTAxMDAyMTETMBEG
A1UEBAwKxb1BSUtPVlNLSTENMAsGA1UEKgwESUdPUjEUMBIGA1UEBRMLMzcxMDEw
MTAwMjEwdjAQBgcqhkjOPQIBBgUrgQQAIgNiAAQR8RuiB1FmB/jiymeBkfrR+tFi
RW/MjBsAQLdE/NcMXo3vMDTOob7oES+CBsjmuI8in/6duMpU2BXY2uhF3FAvYXnL
ojy+/oTyYTY4UCAGRPDMaff/GLt8lkXcl767hT6jggJQMIICTDAJBgNVHRMEAjAA
MA4GA1UdDwEB/wQEAwIDiDCBiQYDVR0gBIGBMH8wcwYJKwYBBAHOHwMBMGYwLwYI
KwYBBQUHAgEWI2h0dHBzOi8vd3d3LnNrLmVlL3JlcG9zaXRvb3JpdW0vQ1BTMDMG
CCsGAQUFBwICMCcMJUFpbnVsdCB0ZXN0aW1pc2Vrcy4gT25seSBmb3IgdGVzdGlu
Zy4wCAYGBACPegECMCIGA1UdEQQbMBmBF2lnb3IuemFpa292c2tpQGVlc3RpLmVl
MB0GA1UdDgQWBBR7E1DH0bDU59rbqamQ+cYg+IykzjBhBggrBgEFBQcBAwRVMFMw
UQYGBACORgEFMEcwRRY/aHR0cHM6Ly9zay5lZS9lbi9yZXBvc2l0b3J5L2NvbmRp
dGlvbnMtZm9yLXVzZS1vZi1jZXJ0aWZpY2F0ZXMvEwJFTjAgBgNVHSUBAf8EFjAU
BggrBgEFBQcDAgYIKwYBBQUHAwQwHwYDVR0jBBgwFoAUScDyRDll1ZtGOw04YIOx
1i0ohqYwgYMGCCsGAQUFBwEBBHcwdTAsBggrBgEFBQcwAYYgaHR0cDovL2FpYS5k
ZW1vLnNrLmVlL2VzdGVpZDIwMTUwRQYIKwYBBQUHMAKGOWh0dHBzOi8vc2suZWUv
dXBsb2FkL2ZpbGVzL1RFU1Rfb2ZfRVNURUlELVNLXzIwMTUuZGVyLmNydDA0BgNV
HR8ELTArMCmgJ6AlhiNodHRwczovL2Muc2suZWUvdGVzdF9lc3RlaWQyMDE1LmNy
bDANBgkqhkiG9w0BAQsFAAOCAgEAI/CzsHiwiIHc7NQTlDeeuWQEJk1t7NhFstdT
Rd+0j/cPbJxX1ATRhyCe4UAktYIb/PevU2CV2BpUKl15NRpIAQEJPrdQWgEd9ydA
K2TAA8XnUGqNV/v4l7+LWUYLMWORDWc7UeVZkU44BGz3dqN5a0k09LXmrFLQKZiJ
2/1PWB/1sZSPDhrdah+UZnSwkmmgmIkiB5CAC59OKw0Jur0aUDIBu5CKB6vzMX02
TXj2wox0IxtH4YVM/dx5QOCW3f4dapj6yMGJVne2bO+Z7QqO6KD0Ois6gvc/OYZR
L7OUTz4EueZYqn+Vx0/xUIYkcYFD61wT2rz9I/6cANikgaNYSHoxhumPFc4E/0gA
BWqadJLHJLmtjmNxi7YVOmFKAhWH7d7hCWI2MDNWWfL3NVOMh2Fpym5d+dUImtv7
SIxeGK8eDmiPjDDy65gfgrKCD0JNRjoetEZY4RPoxAANdO5KmPGBL41UsEymCcpc
+BJtYNexUjK2PGP2WoSyotiYLQ00i6lp1H9QDwk2TZrXC+6qsR/1gf2r+J0Dj+jw
A4uLotDni4Bk/sbgDRgHL71JRLKji0vP34JRO9e6+YLfTvVzC8S0LmWf5Eputoa+
nZ7dgwsuz8eMFmVhld7tfYxKpNL7z5sC0gLITUsijusU+gKjrdUuo/Ox6yBOSSmE
/MCBVBQ=
-----END CERTIFICATE-----
