Certificate:
    Data:
        Version: 3 (0x2)
        Serial Number:
            01:8d:8e:aa:34:bd:4c:ea:56:d8:44:f3:a7:2c:09:5e
        Signature Algorithm: sha256WithRSAEncryption
        Issuer: C = EE, O = AS Sertifitseerimiskeskus, organizationIdentifier = NTREE-10747013, CN = TEST of ESTEID-SK 2015
        Validity
            Not Before: Mar  3 14:06:43 2016 GMT
            Not After : Mar  2 21:59:59 2021 GMT
        Subject: C = EE, O = ESTEID, OU = authentication, CN = "\C5\BDAIKOVSKI,IGOR,37101010021", SN = \C5\BDAIKOVSKI, GN = IGOR, serialNumber = 37101010021
        Subject Public Key Info:
            Public Key Algorithm: rsaEncryption
                RSA Public-Key: (2048 bit)
                Modulus:
                    00:9e:8f:d9:b2:3c:7e:89:85:f9:46:ad:8d:2d:b5:
                    e1:f8:24:0a:94:8a:1a:c1:21:17:4e:39:83:d6:b4:
                    de:35:49:11:15:cf:7e:17:97:78:66:39:84:54:ba:
                    f6:9d:31:2a:dc:91:96:14:55:4b:c5:2d:19:e4:0e:
                    f5:fc:54:4b:06:0a:c2:3b:2d:ce:2d:f5:60:b7:ab:
                    f7:53:fc:d8:d2:7a:64:f5:f8:b5:a2:ba:1c:7d:6b:
                    9e:c1:bb:7a:3d:15:47:a7:18:68:ed:56:40:7e:32:
                    80:36:32:91:2b:eb:52:b7:14:8b:56:86:38:bf:e1:
                    93:39:62:7a:2b:4f:3f:55:63:b5:ee:eb:77:4d:23:
                    af:47:80:75:6f:af:3a:d8:7c:ce:74:62:64:e2:6a:
                    fa:f6:7b:33:21:4a:27:b0:21:89:17:b2:8e:2b:20:
                    aa:7d:e9:69:52:96:5f:83:cf:90:ac:ff:a5:92:5c:
                    f4:1d:aa:a6:c2:c0:34:fc:84:a5:0b:42:d7:72:e2:
                    76:38:97:53:32:37:2a:27:e2:38:f5:94:d7:2b:9b:
                    bf:70:d8:2f:b2:f1:69:34:d7:fd:97:3e:27:96:54:
                    68:d2:49:a4:cd:e4:a7:e1:a7:08:e6:79:80:01:51:
                    f5:be:8f:fb:2c:5d:a0:f9:2b:f1:3e:95:0b:72:c6:
                    4d:b9
                Exponent: 65537 (0x10001)
        X509v3 extensions:
            X509v3 Basic Constraints: 
                CA:FALSE
            X509v3 Key Usage: critical
                Digital Signature, Key Encipherment, Data Encipherment
            X509v3 Certificate Policies: 
                Policy: 1.3.6.1.4.1.10015.3.1
                  CPS: https://www.sk.ee/cps

            X509v3 Subject Alternative Name: 
                email:igor.zaikovski.3@eesti.ee
            X509v3 Subject Key Identifier: 
                F1:37:D6:1A:E7:64:53:72:A2:7A:04:7A:16:6C:6A:1D:C3:70:83:FF
            X509v3 Extended Key Usage: critical
                TLS Web Client Authentication, E-mail Protection
            X509v3 Authority Key Identifier: 
                keyid:49:C0:F2:44:39:65:D5:9B:46:3B:0D:38:60:83:B1:D6:2D:28:86:A6

            X509v3 CRL Distribution Points: 

                Full Name:
                  URI:http://www.sk.ee/crls/esteid/test_esteid2015.crl

    Signature Algorithm: sha256WithRSAEncryption
         46:57:79:2d:6f:76:d5:60:3a:bd:d5:0d:e6:73:5b:90:02:9d:
         0e:8d:03:cd:0a:34:b1:09:ea:23:9c:d3:c8:d3:c6:27:f6:ea:
         37:43:17:2e:58:43:8a:bb:74:6f:b9:c6:8d:e5:6c:80:c3:93:
         81:e6:de:4c:a8:26:cc:eb:13:5e:b1:6a:48:00:f7:af:c3:fa:
         f5:eb:60:89:4f:ab:e9:8d:9a:e0:4c:b4:bd:03:8a:11:ec:3f:
         a0:3b:35:77:37:e4:a2:8d:05:fe:5c:5c:56:b3:63:8f:1b:68:
         5b:9f:ad:52:3f:c3:10:68:fa:48:f0:0f:61:26:c9:ae:8e:4e:
         a3:9e:aa:fb:68:fb:ac:d9:bc:49:94:e7:d8:40:dd:f4:04:40:
         a7:fe:81:2f:76:b8:82:96:c3:e0:8c:81:04:15:44:b3:ae:82:
         cb:4c:02:c3:ce:bb:ed:74:45:5c:4d:e7:c7:47:63:a6:94:4a:
         54:00:0b:87:e3:e7:88:4f:64:3f:04:85:b5:87:b7:0d:30:16:
         8c:42:5a:0a:46:3b:ca:c1:6f:71:b4:19:ee:c0:45:8b:1a:7e:
         41:d3:6c:73:4e:39:78:d9:ef:3c:15:0d:00:27:ca:e4:11:4f:
         ea:80:c7:8f:b2:f7:53:41:6d:1a:09:50:ef:6c:86:24:5b:4e:
         41:5a:59:9c:f4:e1:9d:44:32:55:d9:8d:23:99:6b:05:ed:75:
         e1:64:a9:20:46:f0:ed:8b:70:15:09:99:1a:15:00:03:5e:5d:
         6e:f0:45:32:13:09:f4:52:3a:f9:e0:9f:93:5a:f6:8d:59:f8:
         1f:75:dc:57:17:1b:04:59:12:b9:6a:e8:8d:63:90:f9:b9:ba:
         fb:ce:87:76:49:8a:c3:fe:e9:ef:69:9a:6c:94:33:29:52:2c:
         b2:aa:74:78:76:28:bb:57:f9:5b:d7:8b:3e:5f:54:db:eb:1f:
         49:57:1d:b7:ae:0a:ed:ae:9e:7c:f9:28:5a:47:ac:0e:d8:f6:
         a6:ca:8e:7f:cc:b9:6c:27:99:a8:47:b1:90:9a:d8:0f:a0:fe:
         9b:4d:18:82:81:f5:8e:c7:7a:ae:89:ac:6c:62:35:2b:e8:2f:
         7e:de:3e:a0:83:64:96:ed:48:03:4a:2a:c5:95:86:08:69:28:
         f3:ef:8b:8e:ce:b5:cb:6f:d0:ca:49:b8:a1:52:6d:7a:a3:00:
         cc:80:52:a9:ab:a9:6a:5f:e6:ba:8e:6c:ff:17:7d:d1:d5:cb:
         13:e3:f7:09:1a:cb:85:fe:9c:88:d5:90:1b:4f:25:f0:0c:d5:
         f0:bb:e6:25:c3:ed:7d:fb:94:37:f6:65:1f:f5:3a:a1:c6:24:
         75:b9:8b:52:77:49:23:40
-----BEGIN CERTIFICATE-----
MIIFtjCCA56gAwIBAgIQAY2OqjS9TOpW2ETzpywJXjANBgkqhkiG9w0BAQsFADBr
MQswCQYDVQQGEwJFRTEiMCAGA1UECgwZQVMgU2VydGlmaXRzZWVyaW1pc2tlc2t1
czEXMBUGA1UEYQwOTlRSRUUtMTA3NDcwMTMxHzAdBgNVBAMMFlRFU1Qgb2YgRVNU
RUlELVNLIDIwMTUwHhcNMTYwMzAzMTQwNjQzWhcNMjEwMzAyMjE1OTU5WjCBlzEL
MAkGA1UEBhMCRUUxDzANBgNVBAoMBkVTVEVJRDEXMBUGA1UECwwOYXV0aGVudGlj
YXRpb24xJDAiBgNVBAMMG8W9QUlLT1ZTS0ksSUdPUiwzNzEwMTAxMDAyMTETMBEG
A1UEBAwKxb1BSUtPVlNLSTENMAsGA1UEKgwESUdPUjEUMBIGA1UEBRMLMzcxMDEw
MTAwMjEwggEiMA0GCSqGSIb3DQEBAQUAA4IBDwAwggEKAoIBAQCej9myPH6JhflG
rY0tteH4JAqUihrBIRdOOYPWtN41SREVz34Xl3hmOYRUuvadMSrckZYUVUvFLRnk
DvX8VEsGCsI7Lc4t9WC3q/dT/NjSemT1+LWiuhx9a57Bu3o9FUenGGjtVkB+MoA2
MpEr61K3FItWhji/4ZM5YnorTz9VY7Xu63dNI69HgHVvrzrYfM50YmTiavr2ezMh
SiewIYkXso4rIKp96WlSll+Dz5Cs/6WSXPQdqqbCwDT8hKULQtdy4nY4l1MyNyon
4jj1lNcrm79w2C+y8Wk01/2XPieWVGjSSaTN5KfhpwjmeYABUfW+j/ssXaD5K/E+
lQtyxk25AgMBAAGjggEnMIIBIzAJBgNVHRMEAjAAMA4GA1UdDwEB/wQEAwIEsDA7
BgNVHSAENDAyMDAGCSsGAQQBzh8DATAjMCEGCCsGAQUFBwIBFhVodHRwczovL3d3
dy5zay5lZS9jcHMwJAYDVR0RBB0wG4EZaWdvci56YWlrb3Zza2kuM0BlZXN0aS5l
ZTAdBgNVHQ4EFgQU8TfWGudkU3KiegR6FmxqHcNwg/8wIAYDVR0lAQH/BBYwFAYI
KwYBBQUHAwIGCCsGAQUFBwMEMB8GA1UdIwQYMBaAFEnA8kQ5ZdWbRjsNOGCDsdYt
KIamMEEGA1UdHwQ6MDgwNqA0oDKGMGh0dHA6Ly93d3cuc2suZWUvY3Jscy9lc3Rl
aWQvdGVzdF9lc3RlaWQyMDE1LmNybDANBgkqhkiG9w0BAQsFAAOCAgEARld5LW92
1WA6vdUN5nNbkAKdDo0DzQo0sQnqI5zTyNPGJ/bqN0MXLlhDirt0b7nGjeVsgMOT
gebeTKgmzOsTXrFqSAD3r8P69etgiU+r6Y2a4Ey0vQOKEew/oDs1dzfkoo0F/lxc
VrNjjxtoW5+tUj/DEGj6SPAPYSbJro5Oo56q+2j7rNm8SZTn2EDd9ARAp/6BL3a4
gpbD4IyBBBVEs66Cy0wCw8677XRFXE3nx0djppRKVAALh+PniE9kPwSFtYe3DTAW
jEJaCkY7ysFvcbQZ7sBFixp+QdNsc045eNnvPBUNACfK5BFP6oDHj7L3U0FtGglQ
72yGJFtOQVpZnPThnUQyVdmNI5lrBe114WSpIEbw7YtwFQmZGhUAA15dbvBFMhMJ
9FI6+eCfk1r2jVn4H3XcVxcbBFkSuWrojWOQ+bm6+86HdkmKw/7p72mabJQzKVIs
sqp0eHYou1f5W9eLPl9U2+sfSVcdt64K7a6efPkoWkesDtj2psqOf8y5bCeZqEex
kJrYD6D+m00YgoH1jsd6romsbGI1K+gvft4+oINklu1IA0oqxZWGCGko8++Ljs61
y2/Qykm4oVJteqMAzIBSqaupal/muo5s/xd90dXLE+P3CRrLhf6ciNWQG08l8AzV
8LvmJcPtffuUN/ZlH/U6ocYkdbmLUndJI0A=
-----END CERTIFICATE-----
