Certificate:
    Data:
        Version: 3 (0x2)
        Serial Number:
            48:90:81:2e:8e:34:f0:26:5c:ca:c9:b0:6d:e1:49:63
        Signature Algorithm: ecdsa-with-SHA512
        Issuer: C=EE, O=SK ID Solutions AS/organizationIdentifier=NTREE-10747013, CN=TEST of ESTEID2018
        Validity
            Not Before: May  2 10:42:56 2019 GMT
            Not After : May  2 10:42:56 2029 GMT
        Subject: C=EE, GN=JAAK-KRISTJAN, SN=J\xC3\x95EORG, CN=J\xC3\x95EORG,JAAK-KRISTJAN,38001085718/serialNumber=PNOEE-38001085718
        Subject Public Key Info:
            Public Key Algorithm: id-ecPublicKey
                Public-Key: (384 bit)
                pub:
                    04:63:45:f5:59:89:ea:76:83:59:24:53:3c:53:70:
                    fd:27:f0:e2:1e:5d:c0:6f:eb:bc:b9:23:f7:7d:d6:
                    2e:6d:ec:fc:de:1b:4a:08:9f:86:22:ac:50:36:8e:
                    98:a0:cd:5a:69:d1:b7:a1:20:49:fe:3f:1a:27:0e:
                    97:79:91:10:6b:2d:82:4a:8b:69:31:ad:ff:da:a9:
                    1b:62:86:45:52:c5:15:9c:fa:d7:a9:62:9f:54:53:
                    72:8c:cf:82:ad:ba:3d
                ASN1 OID: secp384r1
                NIST CURVE: P-384
        X509v3 extensions:
            X509v3 Basic Constraints: 
                CA:FALSE
            X509v3 Key Usage: critical
                Digital Signature, Key Agreement
            X509v3 Certificate Policies: 
                Policy: 1.3.6.1.4.1.51361.1.2.1
                  CPS: https://www.sk.ee/CPS
                Policy: 0.4.0.2042.1.2

            X509v3 Subject Alternative Name: 
                email:jaak-kristjan.joeorg@eesti.ee
            X509v3 Subject Key Identifier: 
                C6:D8:2C:B4:7D:23:E6:E2:CE:E8:12:AF:07:1D:9D:12:A2:AA:F9:53
            qcStatements: 
                0S0Q.....F..0G0E.?https://sk.ee/en/repository/conditions-for-use-of-certificates/..EN
            X509v3 Extended Key Usage: critical
                TLS Web Client Authentication, E-mail Protection
            X509v3 Authority Key Identifier: 
                keyid:C0:84:99:29:C4:4E:9F:3B:02:34:F6:99:E1:0A:56:00:08:29:3E:7B

            Authority Information Access: 
                OCSP - URI:http://aia.demo.sk.ee/esteid2018
                CA Issuers - URI:http://c.sk.ee/Test_of_ESTEID2018.der.crt

    Signature Algorithm: ecdsa-with-SHA512
         30:81:88:02:42:01:ad:66:f0:e9:a9:86:c7:d6:54:a9:54:b9:
         99:ec:8f:0b:32:5a:4b:3b:43:68:d5:b9:d3:b9:c5:79:fa:0d:
         d2:56:fb:0c:47:52:c8:f7:e2:ff:b4:39:9b:3c:fe:9f:ee:70:
         1b:de:8b:cf:01:5e:c1:35:44:1f:25:14:7b:f4:6f:a2:8f:02:
         42:00:a2:a4:72:50:03:b4:43:8c:79:21:f9:90:b2:f0:e7:8d:
         bd:ac:5c:c7:c9:07:98:c6:9f:53:cf:c7:3b:ad:a8:9a:b7:f3:
         a1:34:cc:16:9e:96:74:10:4e:a4:51:22:7e:fe:3f:d0:2e:58:
         a6:0e:c0:af:fd:15:44:59:9c:c0:f5:43:09
-----BEGIN CERTIFICATE-----
MIIEDTCCA26gAwIBAgIQSJCBLo408CZcysmwbeFJYzAKBggqhkjOPQQDBDBgMQsw
CQYDVQQGEwJFRTEbMBkGA1UECgwSU0sgSUQgU29sdXRpb25zIEFTMRcwFQYDVQRh
DA5OVFJFRS0xMDc0NzAxMzEbMBkGA1UEAwwSVEVTVCBvZiBFU1RFSUQyMDE4MB4X
DTE5MDUwMjEwNDI1NloXDTI5MDUwMjEwNDI1NlowfzELMAkGA1UEBhMCRUUxFjAU
BgNVBCoMDUpBQUstS1JJU1RKQU4xEDAOBgNVBAQMB0rDlUVPUkcxKjAoBgNVBAMM
IUrDlUVPUkcsSkFBSy1LUklTVEpBTiwzODAwMTA4NTcxODEaMBgGA1UEBRMRUE5P
RUUtMzgwMDEwODU3MTgwdjAQBgcqhkjOPQIBBgUrgQQAIgNiAARjRfVZiep2g1kk
UzxTcP0n8OIeXcBv67y5I/d91i5t7PzeG0oIn4YirFA2jpigzVpp0behIEn+Pxon
Dpd5kRBrLYJKi2kxrf/aqRtihkVSxRWc+tepYp9UU3KMz4Ktuj2jggHMMIIByDAJ
BgNVHRMEAjAAMA4GA1UdDwEB/wQEAwIDiDBHBgNVHSAEQDA+MDIGCysGAQQBg5Eh
AQIBMCMwIQYIKwYBBQUHAgEWFWh0dHBzOi8vd3d3LnNrLmVlL0NQUzAIBgYEAI96
AQIwKAYDVR0RBCEwH4EdamFhay1rcmlzdGphbi5qb2VvcmdAZWVzdGkuZWUwHQYD
VR0OBBYEFMbYLLR9I+bizugSrwcdnRKiqvlTMGEGCCsGAQUFBwEDBFUwUzBRBgYE
AI5GAQUwRzBFFj9odHRwczovL3NrLmVlL2VuL3JlcG9zaXRvcnkvY29uZGl0aW9u
cy1mb3ItdXNlLW9mLWNlcnRpZmljYXRlcy8TAkVOMCAGA1UdJQEB/wQWMBQGCCsG
AQUFBwMCBggrBgEFBQcDBDAfBgNVHSMEGDAWgBTAhJkpxE6fOwI09pnhClYACCk+
ezBzBggrBgEFBQcBAQRnMGUwLAYIKwYBBQUHMAGGIGh0dHA6Ly9haWEuZGVtby5z
ay5lZS9lc3RlaWQyMDE4MDUGCCsGAQUFBzAChilodHRwOi8vYy5zay5lZS9UZXN0
X29mX0VTVEVJRDIwMTguZGVyLmNydDAKBggqhkjOPQQDBAOBjAAwgYgCQgGtZvDp
qYbH1lSpVLmZ7I8LMlpLO0No1bnTucV5+g3SVvsMR1LI9+L/tDmbPP6f7nAb3ovP
AV7BNUQfJRR79G+ijwJCAKKkclADtEOMeSH5kLLw5429rFzHyQeYxp9Tz8c7raia
t/OhNMwWnpZ0EE6kUSJ+/j/QLlimDsCv/RVEWZzA9UMJ
-----END CERTIFICATE-----
