Certificate:
    Data:
        Version: 3 (0x2)
        Serial Number:
            47:e2:e5:f6:b4:5a:1d:81:55:27:b8:89:30:3c:2c:dc
        Signature Algorithm: sha256WithRSAEncryption
        Issuer: C = EE, O = AS Sertifitseerimiskeskus, CN = TEST of ESTEID-SK 2011, emailAddress = pki@sk.ee
        Validity
            Not Before: Apr 10 11:48:25 2015 GMT
            Not After : Apr  8 20:59:59 2020 GMT
        Subject: C = EE, O = ESTEID, OU = authentication, CN = "V\C3\84RNICK,KR\C3\95\C3\95T,48812040138", SN = V\C3\84RNICK, GN = KR\C3\95\C3\95T, serialNumber = 48812040138
        Subject Public Key Info:
            Public Key Algorithm: rsaEncryption
                RSA Public-Key: (2048 bit)
                Modulus:
                    00:96:39:fa:5c:fa:8d:47:7d:cf:53:27:09:25:d0:
                    e1:a7:4d:ff:97:e8:8b:69:cd:bc:19:61:7f:32:fe:
                    70:43:63:77:4a:82:30:56:9d:37:0d:2c:1a:b8:f6:
                    4f:df:7a:77:6f:e4:1b:a0:fa:db:d5:0f:91:2b:61:
                    85:3e:fc:1d:1c:a0:ba:e9:ab:73:e7:5f:a8:20:a9:
                    17:cb:9f:0a:dc:ef:16:b1:2a:2e:b3:ab:83:2e:82:
                    5e:9f:39:85:ad:34:f0:7f:e3:0c:3a:e5:df:a5:00:
                    5f:9a:c1:62:3a:4d:ac:6a:df:d2:05:4e:8c:58:70:
                    1f:03:56:12:4a:2a:59:af:12:0f:b9:cd:ae:e0:65:
                    57:ab:95:d5:4f:58:f5:c8:c2:89:8f:8f:18:4d:95:
                    0c:7b:d5:a0:48:6d:be:91:03:71:83:ea:22:da:1a:
                    c2:54:e6:df:3c:b5:1b:5e:e1:84:5a:e3:59:5d:78:
                    0b:3f:cc:15:37:de:d4:fa:ac:b0:01:b3:c2:e2:b8:
                    4b:56:fb:34:02:e1:58:68:f4:05:e5:49:66:38:2a:
                    dc:48:56:64:b1:b1:34:76:cd:ff:40:4c:0f:9e:35:
                    8b:0b:d2:e2:de:88:6f:18:bf:5a:03:d7:3f:81:cb:
                    bf:9b:29:ec:01:26:e3:e6:58:d0:7a:c5:23:c9:84:
                    e2:e9
                Exponent: 65537 (0x10001)
        X509v3 extensions:
            X509v3 Basic Constraints: 
                CA:FALSE
            X509v3 Key Usage: critical
                Digital Signature, Key Encipherment, Data Encipherment
            X509v3 Certificate Policies: 
                Policy: 1.3.6.1.4.1.10015.3.1.1
                  User Notice:
                    Explicit Text: 
                  CPS: http://www.sk.ee/cps/

            X509v3 Subject Alternative Name: 
                email:kroot.varnick.1@eesti.ee
            X509v3 Subject Key Identifier: 
                F6:CF:BD:89:7B:7C:6F:05:E5:DA:3C:A8:EF:7F:35:07:48:9C:C2:8B
            X509v3 Extended Key Usage: critical
                TLS Web Client Authentication, E-mail Protection
            qcStatements: 
                0.0......F..0......F..
            X509v3 Authority Key Identifier: 
                keyid:41:B6:FE:C5:B1:B1:B4:53:13:8C:FA:FA:62:D0:34:6D:6D:22:34:0A

            X509v3 CRL Distribution Points: 

                Full Name:
                  URI:http://www.sk.ee/repository/crls/test_esteid2011.crl

    Signature Algorithm: sha256WithRSAEncryption
         62:b2:6e:ea:3c:de:6b:6c:f1:bb:b0:5d:e5:b8:e4:67:a6:41:
         e5:92:0f:41:77:e6:a0:b6:41:42:b7:f7:eb:cf:b0:7a:f4:89:
         99:50:e1:53:67:10:2d:81:bf:8f:f4:16:9f:77:3c:bb:58:b3:
         46:8e:11:a3:d8:7d:f3:3b:d1:36:36:cc:2c:ce:a8:d6:61:b8:
         1e:1e:c0:c3:07:ae:aa:32:a4:5b:9a:00:1f:13:8e:00:c4:e2:
         89:41:7c:8d:18:bc:f5:e8:05:79:9f:66:a8:fd:b4:49:6f:64:
         44:0a:ec:7a:59:b9:8b:9d:cb:3d:27:9a:64:5d:1a:cc:08:0a:
         5a:61:a9:88:45:0d:51:0a:19:c3:2b:bc:07:f0:fb:58:72:28:
         56:2c:4a:58:8b:e5:5a:4c:b8:f5:98:da:8f:fb:d3:15:c5:e8:
         09:ca:bf:cc:d0:96:ba:5a:66:7f:f8:0d:a1:0a:27:2c:1b:14:
         ed:74:03:b2:99:81:11:35:0e:37:ba:77:78:ec:f8:97:96:60:
         ed:83:fb:30:29:c8:06:20:78:73:2b:ec:c0:58:84:38:8c:23:
         c1:6c:93:53:fc:d2:e7:8b:eb:cb:d6:5c:6a:9c:a0:89:43:fb:
         33:31:6b:7c:51:3c:24:31:c4:93:3f:37:58:5e:65:77:90:85:
         28:d0:d9:17
-----BEGIN CERTIFICATE-----
MIIFPjCCBCagAwIBAgIQR+Ll9rRaHYFVJ7iJMDws3DANBgkqhkiG9w0BAQsFADBs
MQswCQYDVQQGEwJFRTEiMCAGA1UECgwZQVMgU2VydGlmaXRzZWVyaW1pc2tlc2t1
czEfMB0GA1UEAwwWVEVTVCBvZiBFU1RFSUQtU0sgMjAxMTEYMBYGCSqGSIb3DQEJ
ARYJcGtpQHNrLmVlMB4XDTE1MDQxMDExNDgyNVoXDTIwMDQwODIwNTk1OVowgZkx
CzAJBgNVBAYTAkVFMQ8wDQYDVQQKDAZFU1RFSUQxFzAVBgNVBAsMDmF1dGhlbnRp
Y2F0aW9uMSUwIwYDVQQDDBxWw4RSTklDSyxLUsOVw5VULDQ4ODEyMDQwMTM4MREw
DwYDVQQEDAhWw4RSTklDSzEQMA4GA1UEKgwHS1LDlcOVVDEUMBIGA1UEBRMLNDg4
MTIwNDAxMzgwggEhMA0GCSqGSIb3DQEBAQUAA4IBDgAwggEJAoIBAJY5+lz6jUd9
z1MnCSXQ4adN/5foi2nNvBlhfzL+cENjd0qCMFadNw0sGrj2T996d2/kG6D629UP
kSthhT78HRyguumrc+dfqCCpF8ufCtzvFrEqLrOrgy6CXp85ha008H/jDDrl36UA
X5rBYjpNrGrf0gVOjFhwHwNWEkoqWa8SD7nNruBlV6uV1U9Y9cjCiY+PGE2VDHvV
oEhtvpEDcYPqItoawlTm3zy1G17hhFrjWV14Cz/MFTfe1PqssAGzwuK4S1b7NALh
WGj0BeVJZjgq3EhWZLGxNHbN/0BMD541iwvS4t6Ibxi/WgPXP4HLv5sp7AEm4+ZY
0HrFI8mE4ukCAwEAAaOCAa0wggGpMAkGA1UdEwQCMAAwDgYDVR0PAQH/BAQDAgSw
MIGZBgNVHSAEgZEwgY4wgYsGCisGAQQBzh8DAQEwfTBYBggrBgEFBQcCAjBMHkoA
QQBpAG4AdQBsAHQAIAB0AGUAcwB0AGkAbQBpAHMAZQBrAHMALgAgAE8AbgBsAHkA
IABmAG8AcgAgAHQAZQBzAHQAaQBuAGcALjAhBggrBgEFBQcCARYVaHR0cDovL3d3
dy5zay5lZS9jcHMvMCMGA1UdEQQcMBqBGGtyb290LnZhcm5pY2suMUBlZXN0aS5l
ZTAdBgNVHQ4EFgQU9s+9iXt8bwXl2jyo7381B0icwoswIAYDVR0lAQH/BBYwFAYI
KwYBBQUHAwIGCCsGAQUFBwMEMCIGCCsGAQUFBwEDBBYwFDAIBgYEAI5GAQEwCAYG
BACORgEEMB8GA1UdIwQYMBaAFEG2/sWxsbRTE4z6+mLQNG1tIjQKMEUGA1UdHwQ+
MDwwOqA4oDaGNGh0dHA6Ly93d3cuc2suZWUvcmVwb3NpdG9yeS9jcmxzL3Rlc3Rf
ZXN0ZWlkMjAxMS5jcmwwDQYJKoZIhvcNAQELBQADggEBAGKybuo83mts8buwXeW4
5GemQeWSD0F35qC2QUK39+vPsHr0iZlQ4VNnEC2Bv4/0Fp93PLtYs0aOEaPYffM7
0TY2zCzOqNZhuB4ewMMHrqoypFuaAB8TjgDE4olBfI0YvPXoBXmfZqj9tElvZEQK
7HpZuYudyz0nmmRdGswIClphqYhFDVEKGcMrvAfw+1hyKFYsSliL5VpMuPWY2o/7
0xXF6AnKv8zQlrpaZn/4DaEKJywbFO10A7KZgRE1Dje6d3js+JeWYO2D+zApyAYg
eHMr7MBYhDiMI8Fsk1P80ueL68vWXGqcoIlD+zMxa3xRPCQxxJM/N1heZXeQhSjQ
2Rc=
-----END CERTIFICATE-----
