Certificate:
    Data:
        Version: 1 (0x0)
        Serial Number:
            37:8a:a3:81:6a:51:6b:b9:cf:40:a4:5d:be:ed:26:66:cb:53:27:8d
        Signature Algorithm: sha256WithRSAEncryption
        Issuer: C=EE, ST=TEST, L=TEST, O=TEST, OU=TEST, CN=TEST/emailAddress=example@example.com
        Validity
            Not Before: Dec 15 20:09:28 2072 GMT
            Not After : Dec 15 20:09:28 2077 GMT
        Subject: C=EE, ST=TEST, L=TEST, O=TEST, OU=TEST, CN=TEST/emailAddress=example@example.com
        Subject Public Key Info:
            Public Key Algorithm: rsaEncryption
                RSA Public-Key: (2048 bit)
                Modulus:
                    00:b6:df:7a:31:7a:32:a6:6f:9d:b4:6c:84:76:58:
                    a5:d7:65:07:98:e9:66:57:57:13:40:9e:85:69:9f:
                    d9:4a:6e:a4:4e:94:73:0e:09:8a:94:56:82:08:a9:
                    02:b8:61:a1:37:df:e9:6c:51:d5:a9:b2:00:d1:3a:
                    1f:44:54:5b:7e:6b:67:d1:18:da:66:ed:f3:cd:0f:
                    24:b1:59:28:84:26:f0:8e:5f:10:1e:a0:4e:3e:e4:
                    fd:5e:84:44:94:fb:c1:aa:37:bf:d0:e3:09:5b:84:
                    24:f1:8e:9d:a1:9e:5e:28:97:92:bf:fc:d5:f9:11:
                    5f:7e:d8:8d:f1:72:6d:60:97:81:58:56:2d:15:69:
                    32:c9:14:06:e1:eb:4e:54:68:cb:a1:c5:92:23:a8:
                    75:cf:1a:e8:7d:b4:89:c5:68:28:c8:cf:d2:81:3a:
                    a4:87:e4:c6:f1:32:ff:2b:c1:f1:9e:53:a0:0e:91:
                    29:86:62:78:f1:ef:ae:6f:37:82:2f:dd:22:ce:ce:
                    78:dd:33:7f:ef:36:9b:50:31:2c:16:c6:d6:95:8c:
                    04:93:0b:a8:41:16:eb:2e:ea:17:0c:8a:cd:dd:47:
                    f2:42:11:6a:30:42:df:65:a3:9b:3f:e9:85:18:01:
                    bf:c9:c0:9e:f9:8a:73:9b:1a:1e:9f:76:be:29:9b:
                    ce:8b
                Exponent: 65537 (0x10001)
    Signature Algorithm: sha256WithRSAEncryption
         2e:0c:dc:5a:7d:61:b0:94:e7:92:11:95:3c:5d:d5:d4:9d:bc:
         b1:10:04:00:cc:20:2a:d3:d1:a0:f2:f6:1c:74:a0:af:7a:53:
         34:aa:03:3b:94:79:c4:81:90:11:00:44:d2:96:f1:38:7b:b9:
         ee:3a:d9:dd:69:97:e9:32:17:10:50:03:08:15:0a:89:13:1e:
         b8:cb:b9:2c:63:89:2b:cd:c3:88:bc:79:a9:2b:8c:1a:0f:38:
         57:c9:3d:ca:f5:7b:60:93:c5:d2:67:24:de:60:f0:51:0e:e4:
         e3:e9:36:1b:b1:44:07:bd:c1:e9:13:49:de:5a:db:19:11:d7:
         ba:4e:7f:13:a5:8c:de:c8:4f:1b:52:2f:51:64:59:f8:c5:96:
         9e:5c:38:f4:7f:48:ce:e4:92:51:09:19:15:0e:7e:74:f0:3c:
         c3:64:fc:76:aa:c0:d3:d4:85:8f:58:70:e7:6d:2b:e0:33:cf:
         bb:a0:55:48:e0:d3:21:70:5a:f5:92:6f:a6:92:13:56:aa:36:
         87:b1:fb:bd:01:4e:15:da:0c:bb:f2:a9:5e:ec:b8:7c:85:f1:
         37:34:dc:76:63:dd:c0:4a:1f:96:23:63:21:4c:aa:88:ae:18:
         f3:31:d5:d2:3d:50:3c:f7:6b:88:bb:d4:db:6d:cc:49:0d:40:
         5f:20:34:8b
-----BEGIN CERTIFICATE-----
MIIDgzCCAmsCFDeKo4FqUWu5z0CkXb7tJmbLUyeNMA0GCSqGSIb3DQEBCwUAMHwx
CzAJBgNVBAYTAkVFMQ0wCwYDVQQIDARURVNUMQ0wCwYDVQQHDARURVNUMQ0wCwYD
VQQKDARURVNUMQ0wCwYDVQQLDARURVNUMQ0wCwYDVQQDDARURVNUMSIwIAYJKoZI
hvcNAQkBFhNleGFtcGxlQGV4YW1wbGUuY29tMCIYDzIwNzIxMjE1MjAwOTI4WhgP
MjA3NzEyMTUyMDA5MjhaMHwxCzAJBgNVBAYTAkVFMQ0wCwYDVQQIDARURVNUMQ0w
CwYDVQQHDARURVNUMQ0wCwYDVQQKDARURVNUMQ0wCwYDVQQLDARURVNUMQ0wCwYD
VQQDDARURVNUMSIwIAYJKoZIhvcNAQkBFhNleGFtcGxlQGV4YW1wbGUuY29tMIIB
IjANBgkqhkiG9w0BAQEFAAOCAQ8AMIIBCgKCAQEAtt96MXoypm+dtGyEdlil12UH
mOlmV1cTQJ6FaZ/ZSm6kTpRzDgmKlFaCCKkCuGGhN9/pbFHVqbIA0TofRFRbfmtn
0RjaZu3zzQ8ksVkohCbwjl8QHqBOPuT9XoRElPvBqje/0OMJW4Qk8Y6doZ5eKJeS
v/zV+RFfftiN8XJtYJeBWFYtFWkyyRQG4etOVGjLocWSI6h1zxrofbSJxWgoyM/S
gTqkh+TG8TL/K8HxnlOgDpEphmJ48e+ubzeCL90izs543TN/7zabUDEsFsbWlYwE
kwuoQRbrLuoXDIrN3UfyQhFqMELfZaObP+mFGAG/ycCe+Ypzmxoen3a+KZvOiwID
AQABMA0GCSqGSIb3DQEBCwUAA4IBAQAuDNxafWGwlOeSEZU8XdXUnbyxEAQAzCAq
09Gg8vYcdKCvelM0qgM7lHnEgZARAETSlvE4e7nuOtndaZfpMhcQUAMIFQqJEx64
y7ksY4krzcOIvHmpK4waDzhXyT3K9Xtgk8XSZyTeYPBRDuTj6TYbsUQHvcHpE0ne
WtsZEde6Tn8TpYzeyE8bUi9RZFn4xZaeXDj0f0jO5JJRCRkVDn508DzDZPx2qsDT
1IWPWHDnbSvgM8+7oFVI4NMhcFr1km+mkhNWqjaHsfu9AU4V2gy78qle7Lh8hfE3
NNx2Y93ASh+WI2MhTKqIrhjzMdXSPVA892uIu9TbbcxJDUBfIDSL
-----END CERTIFICATE-----
