Certificate:
    Data:
        Version: 1 (0x0)
        Serial Number:
            32:94:21:d3:35:0d:dd:28:80:f4:1b:16:c0:79:1f:82:d1:30:94:dc
        Signature Algorithm: sha256WithRSAEncryption
        Issuer: C=EE, ST=TEST, L=TEST , O=TEST, OU=TEST, CN=TEST/emailAddress=example@example.com
        Validity
            Not Before: Dec 28 08:09:54 2072 GMT
            Not After : Dec 28 08:09:54 2077 GMT
        Subject: C=EE, ST=TEST, L=TEST , O=TEST, OU=TEST, CN=TEST/emailAddress=example@example.com
        Subject Public Key Info:
            Public Key Algorithm: rsaEncryption
                RSA Public-Key: (2048 bit)
                Modulus:
                    00:ca:e1:81:f8:e5:af:56:55:aa:50:f7:da:87:26:
                    90:f7:dc:3e:00:f9:c5:46:be:ba:de:e9:44:b8:7e:
                    e2:e2:be:87:75:67:a5:7f:a7:6c:1b:7f:8f:36:93:
                    13:4e:90:34:27:f3:b8:2d:60:64:27:0b:c0:47:e8:
                    e1:69:22:91:52:a8:94:1f:76:15:ff:0b:9d:77:0b:
                    f0:de:e7:38:ed:95:ac:bc:40:da:da:68:02:5e:cc:
                    01:62:e0:88:e9:29:e5:8b:b7:b8:6e:e4:60:78:d3:
                    79:92:6c:9a:e8:c9:6f:89:cd:c1:26:9e:65:83:13:
                    5d:4c:38:50:31:08:36:bc:77:db:45:4e:e2:91:cc:
                    40:70:66:3a:bb:d1:6f:be:ce:bd:83:7d:23:83:91:
                    3c:ca:8c:e6:ab:45:3a:99:55:00:53:a7:27:af:17:
                    ac:7e:2e:fb:34:d9:6e:22:46:52:0e:be:30:86:34:
                    f4:f5:61:17:09:e8:0b:6b:6f:ea:d9:94:e3:74:db:
                    59:58:7a:7f:b5:64:8a:13:b7:cc:63:ec:95:4e:b8:
                    e6:f4:01:b1:03:ce:5d:83:62:73:ae:84:6c:ce:69:
                    4b:b1:18:08:a0:19:7a:13:d8:3a:c3:3c:b3:99:13:
                    ae:89:bf:2e:f2:69:75:e1:1c:59:4f:2d:09:ec:e3:
                    9c:b3
                Exponent: 65537 (0x10001)
    Signature Algorithm: sha256WithRSAEncryption
         92:8b:6c:cf:2f:a6:4c:6c:64:d2:20:18:4e:65:28:e1:97:94:
         3a:95:28:3f:ea:2c:d5:8a:5d:a3:eb:88:38:93:42:73:f9:b9:
         94:e7:43:28:f2:0d:8f:53:d2:bc:0e:35:32:bc:5b:f4:e4:16:
         03:8e:ee:89:40:08:e2:e0:e0:61:df:aa:ca:86:9f:65:ae:50:
         b4:11:ce:f2:e6:6b:69:03:19:79:cf:4f:33:97:c8:f0:29:67:
         81:1c:90:47:d1:39:aa:8e:4e:a3:40:ab:4e:75:f9:cb:3f:b0:
         e9:bb:7c:a9:6b:f0:8b:64:3f:42:46:72:29:7e:92:35:9f:42:
         57:a4:c6:11:8b:58:6c:f6:ce:fb:7c:15:79:5a:0c:a1:9b:7a:
         28:60:30:81:20:02:71:e1:a5:2d:f3:cb:47:a9:43:24:78:96:
         8e:06:ee:ea:52:50:5d:1a:bc:d3:65:45:b2:a0:16:02:ad:b3:
         7e:c1:72:31:2b:92:38:08:64:16:d7:24:0f:e3:d7:89:3d:1d:
         b6:42:cc:36:5f:ca:30:8b:64:45:a9:cf:13:9b:e9:ad:2d:bb:
         d8:e2:b0:12:d3:6b:2e:cf:2c:72:47:24:4e:c2:99:eb:79:8b:
         ec:df:55:25:8f:61:69:fd:8e:9c:e8:5d:19:d9:85:e2:85:fa:
         4c:7c:90:4a
-----BEGIN CERTIFICATE-----
MIIDhTCCAm0CFDKUIdM1Dd0ogPQbFsB5H4LRMJTcMA0GCSqGSIb3DQEBCwUAMH0x
CzAJBgNVBAYTAkVFMQ0wCwYDVQQIDARURVNUMQ4wDAYDVQQHDAVURVNUIDENMAsG
A1UECgwEVEVTVDENMAsGA1UECwwEVEVTVDENMAsGA1UEAwwEVEVTVDEiMCAGCSqG
SIb3DQEJARYTZXhhbXBsZUBleGFtcGxlLmNvbTAiGA8yMDcyMTIyODA4MDk1NFoY
DzIwNzcxMjI4MDgwOTU0WjB9MQswCQYDVQQGEwJFRTENMAsGA1UECAwEVEVTVDEO
MAwGA1UEBwwFVEVTVCAxDTALBgNVBAoMBFRFU1QxDTALBgNVBAsMBFRFU1QxDTAL
BgNVBAMMBFRFU1QxIjAgBgkqhkiG9w0BCQEWE2V4YW1wbGVAZXhhbXBsZS5jb20w
ggEiMA0GCSqGSIb3DQEBAQUAA4IBDwAwggEKAoIBAQDK4YH45a9WVapQ99qHJpD3
3D4A+cVGvrre6US4fuLivod1Z6V/p2wbf482kxNOkDQn87gtYGQnC8BH6OFpIpFS
qJQfdhX/C513C/De5zjtlay8QNraaAJezAFi4IjpKeWLt7hu5GB403mSbJroyW+J
zcEmnmWDE11MOFAxCDa8d9tFTuKRzEBwZjq70W++zr2DfSODkTzKjOarRTqZVQBT
pyevF6x+Lvs02W4iRlIOvjCGNPT1YRcJ6Atrb+rZlON021lYen+1ZIoTt8xj7JVO
uOb0AbEDzl2DYnOuhGzOaUuxGAigGXoT2DrDPLOZE66Jvy7yaXXhHFlPLQns45yz
AgMBAAEwDQYJKoZIhvcNAQELBQADggEBAJKLbM8vpkxsZNIgGE5lKOGXlDqVKD/q
LNWKXaPriDiTQnP5uZTnQyjyDY9T0rwONTK8W/TkFgOO7olACOLg4GHfqsqGn2Wu
ULQRzvLma2kDGXnPTzOXyPApZ4EckEfROaqOTqNAq051+cs/sOm7fKlr8ItkP0JG
cil+kjWfQlekxhGLWGz2zvt8FXlaDKGbeihgMIEgAnHhpS3zy0epQyR4lo4G7upS
UF0avNNlRbKgFgKts37BcjErkjgIZBbXJA/j14k9HbZCzDZfyjCLZEWpzxOb6a0t
u9jisBLTay7PLHJHJE7Cmet5i+zfVSWPYWn9jpzoXRnZheKF+kx8kEo=
-----END CERTIFICATE-----

