Certificate:
    Data:
        Version: 3 (0x2)
        Serial Number:
            35:35:92:11:82:64:e4:ce:e0:6f:39:7f:cc:7c:e2:81:c1:47:06:42
        Signature Algorithm: sha256WithRSAEncryption
        Issuer: C=EE, ST=TEST, L=TEST , O=TEST, OU=TEST, CN=TEST/emailAddress=example@example.com
        Validity
            Not Before: Oct 18 12:02:50 2075 GMT
            Not After : Oct 17 12:02:50 2080 GMT
        Subject: C=EE, ST=TEST, L=TEST , O=TEST, OU=TEST, CN=TEST/emailAddress=example@example.com
        Subject Public Key Info:
            Public Key Algorithm: rsaEncryption
                Public-Key: (2048 bit)
                Modulus:
                    00:d8:a3:b5:8c:06:af:62:96:83:fb:9d:89:d3:2b:
                    dc:1b:38:f9:03:c3:ab:e9:df:97:1c:70:1e:5d:8f:
                    28:9c:7d:f0:be:94:94:6c:3d:4d:a8:fb:40:34:14:
                    fe:e0:5c:18:3d:91:7b:25:82:dc:ff:d5:0a:de:a0:
                    1c:4f:de:f7:60:8d:15:e8:da:36:34:22:23:f1:f0:
                    d8:90:f4:7f:7c:fa:1c:9d:02:8e:fc:95:19:4c:41:
                    9d:33:23:c1:41:bc:58:76:da:3f:41:22:92:c2:db:
                    31:18:26:04:bb:c5:a2:5a:20:d4:0b:47:0c:9d:58:
                    6b:96:23:ba:31:8a:0a:f5:3f:8b:3b:b3:e9:d9:a0:
                    87:29:ef:54:bc:6d:94:02:a3:1f:50:3a:7e:aa:ac:
                    d0:76:dd:f0:ce:c0:76:c3:a6:6c:7e:25:c2:4f:3e:
                    d1:51:7f:0d:6a:f0:cb:ab:92:64:cf:96:94:ec:85:
                    80:4a:9f:52:b7:39:a5:7e:66:34:46:99:d2:41:e6:
                    91:3d:33:60:be:35:8c:cc:a0:f4:ed:a9:11:4e:b7:
                    0a:ac:5b:22:e9:60:19:37:46:84:af:0e:32:59:34:
                    7b:3b:b4:4b:68:85:ba:e4:ed:7f:ba:80:ea:40:b4:
                    32:f2:87:7b:f4:40:29:71:1d:4e:f5:0d:52:39:5f:
                    f7:15
                Exponent: 65537 (0x10001)
        X509v3 extensions:
            X509v3 Key Usage: critical
                Digital Signature, Key Agreement
            X509v3 Extended Key Usage: critical
                TLS Web Client Authentication, E-mail Protection
            X509v3 Certificate Policies: 
                Policy: 1.2.3.4
            X509v3 Subject Key Identifier: 
                F9:F1:36:96:CA:37:5C:86:21:2A:E1:E6:ED:33:1C:D4:08:DE:4D:1A
    Signature Algorithm: sha256WithRSAEncryption
    Signature Value:
        4f:f9:f1:00:aa:85:98:e0:65:bc:93:7a:80:eb:58:04:53:7e:
        d8:89:72:3b:62:e3:3a:35:22:94:25:2c:64:66:36:73:8e:5a:
        69:df:ca:7b:53:31:2a:bb:d9:03:f9:5d:c0:54:06:a5:c2:05:
        84:de:e1:28:db:73:aa:0e:14:6f:58:3f:31:eb:50:9a:9f:1c:
        1d:ac:96:44:28:4a:7f:d6:45:86:7d:33:a9:1d:3d:4d:c9:6c:
        4a:cb:f6:a8:69:6d:46:59:f9:6c:6a:0a:33:f5:8c:97:ab:2b:
        1e:06:a7:c0:b9:4c:9e:48:07:44:80:43:67:5e:7c:70:80:fe:
        b8:9a:89:54:3f:a4:ab:1e:aa:74:54:03:cf:4a:39:f3:3e:66:
        a9:2f:22:e9:a5:7f:23:07:8e:b7:ce:9a:8c:3e:76:0b:62:cf:
        69:3b:ff:05:5f:5d:f4:29:cc:99:63:bd:8a:80:6e:23:7b:a2:
        0f:01:19:22:5f:fe:cd:b1:f4:1e:2d:b8:06:63:73:31:85:7c:
        e8:b2:51:80:99:22:4d:01:e6:1a:98:25:2c:28:34:32:ba:f6:
        07:83:66:9f:c9:35:45:81:bf:45:88:94:4f:38:42:31:19:3f:
        5e:7e:9e:96:30:02:e5:4c:53:e4:11:06:84:24:d2:f3:14:fb:
        39:85:1f:cb
-----BEGIN CERTIFICATE-----
MIID8TCCAtmgAwIBAgIUNTWSEYJk5M7gbzl/zHzigcFHBkIwDQYJKoZIhvcNAQEL
BQAwfTELMAkGA1UEBhMCRUUxDTALBgNVBAgMBFRFU1QxDjAMBgNVBAcMBVRFU1Qg
MQ0wCwYDVQQKDARURVNUMQ0wCwYDVQQLDARURVNUMQ0wCwYDVQQDDARURVNUMSIw
IAYJKoZIhvcNAQkBFhNleGFtcGxlQGV4YW1wbGUuY29tMCIYDzIwNzUxMDE4MTIw
MjUwWhgPMjA4MDEwMTcxMjAyNTBaMH0xCzAJBgNVBAYTAkVFMQ0wCwYDVQQIDARU
RVNUMQ4wDAYDVQQHDAVURVNUIDENMAsGA1UECgwEVEVTVDENMAsGA1UECwwEVEVT
VDENMAsGA1UEAwwEVEVTVDEiMCAGCSqGSIb3DQEJARYTZXhhbXBsZUBleGFtcGxl
LmNvbTCCASIwDQYJKoZIhvcNAQEBBQADggEPADCCAQoCggEBANijtYwGr2KWg/ud
idMr3Bs4+QPDq+nflxxwHl2PKJx98L6UlGw9Taj7QDQU/uBcGD2ReyWC3P/VCt6g
HE/e92CNFejaNjQiI/Hw2JD0f3z6HJ0CjvyVGUxBnTMjwUG8WHbaP0EiksLbMRgm
BLvFolog1AtHDJ1Ya5YjujGKCvU/izuz6dmghynvVLxtlAKjH1A6fqqs0Hbd8M7A
dsOmbH4lwk8+0VF/DWrwy6uSZM+WlOyFgEqfUrc5pX5mNEaZ0kHmkT0zYL41jMyg
9O2pEU63CqxbIulgGTdGhK8OMlk0ezu0S2iFuuTtf7qA6kC0MvKHe/RAKXEdTvUN
Ujlf9xUCAwEAAaNlMGMwDgYDVR0PAQH/BAQDAgOIMCAGA1UdJQEB/wQWMBQGCCsG
AQUFBwMCBggrBgEFBQcDBDAQBgNVHSAECTAHMAUGAyoDBDAdBgNVHQ4EFgQU+fE2
lso3XIYhKuHm7TMc1AjeTRowDQYJKoZIhvcNAQELBQADggEBAE/58QCqhZjgZbyT
eoDrWARTftiJcjti4zo1IpQlLGRmNnOOWmnfyntTMSq72QP5XcBUBqXCBYTe4Sjb
c6oOFG9YPzHrUJqfHB2slkQoSn/WRYZ9M6kdPU3JbErL9qhpbUZZ+WxqCjP1jJer
Kx4Gp8C5TJ5IB0SAQ2defHCA/riaiVQ/pKseqnRUA89KOfM+ZqkvIumlfyMHjrfO
mow+dgtiz2k7/wVfXfQpzJljvYqAbiN7og8BGSJf/s2x9B4tuAZjczGFfOiyUYCZ
Ik0B5hqYJSwoNDK69geDZp/JNUWBv0WIlE84QjEZP15+npYwAuVMU+QRBoQk0vMU
+zmFH8s=
-----END CERTIFICATE-----

