Certificate:
    Data:
        Version: 3 (0x2)
        Serial Number:
            09:ec:41:c4:fe:9e:b2:12:8a:16:2c:65:24:c0:e4:8e:dc:ac:28:d7
        Signature Algorithm: sha256WithRSAEncryption
        Issuer: C=EE, ST=TEST, L=TEST , O=TEST, OU=TEST, CN=TEST/emailAddress=example@example.com
        Validity
            Not Before: Jun 19 20:14:23 2074 GMT
            Not After : Jun 19 20:14:23 2079 GMT
        Subject: C=EE, ST=TEST, L=TEST , O=TEST, OU=TEST, CN=TEST/emailAddress=example@example.com
        Subject Public Key Info:
            Public Key Algorithm: rsaEncryption
                Public-Key: (2048 bit)
                Modulus:
                    00:bc:a6:f9:28:ec:ef:4d:de:4a:32:8f:00:17:94:
                    6e:a6:3e:d3:5a:11:d5:f1:d5:93:07:54:91:92:03:
                    f5:d5:62:4b:0c:3c:2d:be:5c:d6:3f:1e:ea:af:00:
                    ef:e5:7b:ba:2a:39:6f:03:8f:c6:42:c1:66:ff:54:
                    93:bd:59:f6:2e:3d:42:09:2c:9f:c3:f2:b3:b0:80:
                    de:94:e5:0e:c9:0c:48:fc:7b:2d:af:b4:c5:dc:72:
                    69:61:af:91:b0:37:05:fe:f8:df:f7:4e:07:f3:70:
                    3f:b6:9c:e8:fd:bb:2b:cb:9e:89:a6:e9:be:7e:92:
                    d5:22:cf:e7:d8:4f:fb:62:df:2e:cc:38:05:63:67:
                    72:5f:92:bf:60:b1:f1:ca:16:20:95:eb:4d:d7:cf:
                    63:fc:79:ac:fa:22:30:dc:b7:8d:0a:23:42:71:86:
                    20:83:f5:92:4e:fb:00:13:48:73:6d:56:5b:81:84:
                    44:d9:76:9a:a3:6c:e0:db:52:d1:25:87:88:97:e9:
                    bc:b3:8a:eb:9e:cd:cc:f0:52:7e:f1:cb:b0:d2:d0:
                    eb:e9:75:74:bd:88:cb:ac:21:75:7a:cb:00:5a:d5:
                    81:c1:d2:7a:bd:3f:85:1e:d7:43:18:0f:5c:ba:40:
                    c0:1f:f9:3d:db:a0:96:58:85:ca:d5:e4:13:c2:48:
                    ee:8d
                Exponent: 65537 (0x10001)
        X509v3 extensions:
            X509v3 Extended Key Usage: critical
                TLS Web Client Authentication, E-mail Protection
            X509v3 Certificate Policies: 
                Policy: 1.2.3.4
            X509v3 Subject Key Identifier: 
                90:5F:55:0A:C8:71:00:81:45:F3:D9:56:46:B4:F3:6C:5E:4A:F9:F6
    Signature Algorithm: sha256WithRSAEncryption
    Signature Value:
        63:74:39:1a:e6:67:33:fd:a5:42:1b:8b:a6:e2:5f:89:4c:f0:
        11:cc:20:97:4e:aa:c8:62:b9:97:01:89:c8:b2:47:97:22:b9:
        b0:bc:ea:fa:97:ab:f4:d0:dc:e1:4b:7d:43:76:8f:01:17:d3:
        67:91:14:d4:ba:73:e0:53:dc:59:e1:4a:82:c8:52:36:c8:74:
        aa:d7:95:82:36:0c:30:0e:ff:6b:ce:e2:1d:21:dc:c3:bf:b7:
        33:ca:f2:72:1e:d4:2a:43:2e:16:d2:5d:21:f9:a1:ca:76:1e:
        a8:f9:d8:0d:dd:c7:c3:28:d8:c7:2d:db:8e:d0:7b:70:9f:96:
        a7:e5:8c:cc:d2:6a:cd:48:cf:6c:7f:bc:07:8b:63:88:e1:26:
        96:34:dc:f8:75:88:4e:e0:6f:ef:64:f4:e8:be:fc:e2:f6:b4:
        75:35:d9:4f:d1:64:ee:a4:33:ba:b4:c4:06:87:b7:38:91:8e:
        be:5c:de:da:3d:4c:1b:5f:f1:01:ad:dc:e6:40:5e:bc:30:66:
        98:4a:95:2e:b0:bf:a0:08:c2:76:4b:87:6d:a5:b3:bf:ed:31:
        1b:55:a4:8b:60:63:f9:8d:d3:7a:30:78:52:ef:3a:bf:32:83:
        9f:bf:1c:1b:89:8d:31:24:1d:29:14:15:73:5f:20:56:04:ae:
        64:04:20:17
-----BEGIN CERTIFICATE-----
MIID4TCCAsmgAwIBAgIUCexBxP6eshKKFixlJMDkjtysKNcwDQYJKoZIhvcNAQEL
BQAwfTELMAkGA1UEBhMCRUUxDTALBgNVBAgMBFRFU1QxDjAMBgNVBAcMBVRFU1Qg
MQ0wCwYDVQQKDARURVNUMQ0wCwYDVQQLDARURVNUMQ0wCwYDVQQDDARURVNUMSIw
IAYJKoZIhvcNAQkBFhNleGFtcGxlQGV4YW1wbGUuY29tMCIYDzIwNzQwNjE5MjAx
NDIzWhgPMjA3OTA2MTkyMDE0MjNaMH0xCzAJBgNVBAYTAkVFMQ0wCwYDVQQIDARU
RVNUMQ4wDAYDVQQHDAVURVNUIDENMAsGA1UECgwEVEVTVDENMAsGA1UECwwEVEVT
VDENMAsGA1UEAwwEVEVTVDEiMCAGCSqGSIb3DQEJARYTZXhhbXBsZUBleGFtcGxl
LmNvbTCCASIwDQYJKoZIhvcNAQEBBQADggEPADCCAQoCggEBALym+Sjs703eSjKP
ABeUbqY+01oR1fHVkwdUkZID9dViSww8Lb5c1j8e6q8A7+V7uio5bwOPxkLBZv9U
k71Z9i49Qgksn8Pys7CA3pTlDskMSPx7La+0xdxyaWGvkbA3Bf743/dOB/NwP7ac
6P27K8ueiabpvn6S1SLP59hP+2LfLsw4BWNncl+Sv2Cx8coWIJXrTdfPY/x5rPoi
MNy3jQojQnGGIIP1kk77ABNIc21WW4GERNl2mqNs4NtS0SWHiJfpvLOK657NzPBS
fvHLsNLQ6+l1dL2Iy6whdXrLAFrVgcHSer0/hR7XQxgPXLpAwB/5PduglliFytXk
E8JI7o0CAwEAAaNVMFMwIAYDVR0lAQH/BBYwFAYIKwYBBQUHAwIGCCsGAQUFBwME
MBAGA1UdIAQJMAcwBQYDKgMEMB0GA1UdDgQWBBSQX1UKyHEAgUXz2VZGtPNsXkr5
9jANBgkqhkiG9w0BAQsFAAOCAQEAY3Q5GuZnM/2lQhuLpuJfiUzwEcwgl06qyGK5
lwGJyLJHlyK5sLzq+per9NDc4Ut9Q3aPARfTZ5EU1Lpz4FPcWeFKgshSNsh0qteV
gjYMMA7/a87iHSHcw7+3M8rych7UKkMuFtJdIfmhynYeqPnYDd3HwyjYxy3bjtB7
cJ+Wp+WMzNJqzUjPbH+8B4tjiOEmljTc+HWITuBv72T06L784va0dTXZT9Fk7qQz
urTEBoe3OJGOvlze2j1MG1/xAa3c5kBevDBmmEqVLrC/oAjCdkuHbaWzv+0xG1Wk
i2Bj+Y3TejB4Uu86vzKDn78cG4mNMSQdKRQVc18gVgSuZAQgFw==
-----END CERTIFICATE-----

