Certificate:
    Data:
        Version: 3 (0x2)
        Serial Number:
            10:36:fd:80:26:62:e0:f7:56:73:b2:28:35:52:1b:b1
        Signature Algorithm: sha384WithRSAEncryption
        Issuer: C = EE, O = AS Sertifitseerimiskeskus, CN = TEST of EE Certification Centre Root CA, emailAddress = pki@sk.ee
        Validity
            Not Before: Dec 18 07:13:44 2015 GMT
            Not After : Dec 17 23:59:59 2030 GMT
        Subject: C = EE, O = AS Sertifitseerimiskeskus, organizationIdentifier = NTREE-10747013, CN = TEST of ESTEID-SK 2015
        Subject Public Key Info:
            Public Key Algorithm: rsaEncryption
                RSA Public-Key: (4096 bit)
                Modulus:
                    00:c4:de:00:5b:cb:c6:60:1e:68:eb:11:29:a7:fe:
                    86:59:0e:85:6f:82:74:48:a5:99:42:0a:5a:cf:aa:
                    09:65:6a:fb:0f:04:f0:f0:3f:4e:88:40:65:d5:1c:
                    3b:82:85:5e:8b:61:98:f0:e6:7c:e0:9b:d0:4c:57:
                    72:73:8f:0a:bd:8d:9d:d6:af:cc:1d:fd:86:d9:72:
                    60:a6:31:90:e9:19:8b:7a:4b:cf:c6:d9:83:f1:ef:
                    a4:1a:32:f0:a2:20:d2:c6:1d:6e:15:4f:60:77:fa:
                    8b:b7:ee:26:30:da:73:8c:cd:d6:f2:9d:55:05:c0:
                    e9:3b:f9:c1:2f:de:f7:4f:d9:c8:5f:79:e6:fc:9c:
                    c5:d3:4b:b6:27:1d:a3:39:b9:c8:20:cc:36:0b:04:
                    8e:2e:90:34:0d:73:22:2d:fe:0b:66:26:9c:35:f1:
                    e9:5c:b1:86:e0:b6:47:7a:b4:c4:d9:30:b4:9e:1e:
                    ce:cd:51:64:6c:56:a2:44:cd:3f:34:1c:de:29:46:
                    84:42:65:56:c4:bc:bc:fe:b6:e2:15:07:c2:e7:d0:
                    9f:0a:ca:5a:97:37:f8:3f:a9:94:c2:0e:d2:3d:c4:
                    fa:19:a1:e3:a8:08:69:d0:d1:c1:e1:51:fd:dc:db:
                    f8:22:01:1d:16:85:87:42:c4:06:37:7f:70:31:50:
                    94:12:3e:13:cb:e9:92:1a:9e:5a:9e:ab:a7:5c:70:
                    9e:10:8b:db:4d:4c:dc:4d:44:d4:cc:3e:e7:55:ea:
                    8f:b5:8e:7d:8d:13:ce:33:a6:40:9c:bc:58:93:c4:
                    c1:4d:a6:e3:82:b1:5b:54:a7:a5:e1:01:56:48:1b:
                    e1:76:05:79:01:c0:96:57:3b:27:b2:43:bf:9d:01:
                    a0:83:e9:79:c8:1a:aa:7d:6f:29:1e:e5:ff:fc:03:
                    b0:bd:0c:37:5b:43:94:18:65:df:1e:d3:27:f7:f0:
                    32:7c:01:d4:4d:f3:55:94:7b:e1:35:19:87:92:78:
                    f4:20:1c:16:b7:cc:e1:19:8f:ff:48:5c:0d:6f:3e:
                    e3:03:56:32:0d:90:82:cb:76:aa:63:d9:98:70:88:
                    fc:e2:6d:e7:23:2d:d1:47:79:c8:f1:7c:01:6c:55:
                    a2:dd:d3:c4:e0:46:8c:c8:8c:f2:6e:96:b2:4b:05:
                    b1:0c:69:e5:6b:40:d0:30:0d:19:72:08:7f:27:53:
                    69:35:75:e8:c8:3e:2a:96:15:a8:52:b1:92:f1:41:
                    99:f5:69:eb:10:29:31:a1:65:dd:d6:3f:9b:9e:8e:
                    f4:91:c4:a8:5a:41:0c:5f:ae:0d:02:0c:8c:52:71:
                    27:83:ed:ec:c7:64:e3:4c:df:2f:83:d2:c3:d4:1c:
                    a3:64:f7
                Exponent: 65537 (0x10001)
        X509v3 extensions:
            X509v3 Authority Key Identifier: 
                keyid:B5:34:0A:9D:A5:2F:10:C5:E7:21:0E:BE:C4:B1:65:47:1B:03:76:FE

            X509v3 Subject Key Identifier: 
                49:C0:F2:44:39:65:D5:9B:46:3B:0D:38:60:83:B1:D6:2D:28:86:A6
            X509v3 Key Usage: critical
                Certificate Sign, CRL Sign
            X509v3 Certificate Policies: 
                Policy: 1.3.6.1.4.1.10015.3.1.1
                  CPS: https://www.sk.ee/CPS
                Policy: 1.3.6.1.4.1.10015.3.1.2
                Policy: 1.3.6.1.4.1.10015.3.1.3
                Policy: 1.3.6.1.4.1.10015.3.1.4

            X509v3 Basic Constraints: critical
                CA:TRUE, pathlen:0
            X509v3 Name Constraints: 
                Excluded:
                  DNS:""
                  IP:0.0.0.0/0.0.0.0
                  IP:0:0:0:0:0:0:0:0/0:0:0:0:0:0:0:0

            X509v3 Extended Key Usage: 
                OCSP Signing, TLS Web Client Authentication, E-mail Protection
            Authority Information Access: 
                OCSP - URI:http://demo.sk.ee/ca_ocsp
                CA Issuers - URI:http://www.sk.ee/certs/TEST_of_EE_Certification_Centre_Root_CA.der.crt

            X509v3 CRL Distribution Points: 

                Full Name:
                  URI:https://www.sk.ee/repository/crls/test_eeccrca.crl

    Signature Algorithm: sha384WithRSAEncryption
         c1:39:84:e9:6d:b4:2e:a0:92:80:9a:d0:cf:a4:0a:26:0d:df:
         66:29:90:9a:ac:83:f1:00:7f:14:5e:98:52:9d:d3:2a:3a:62:
         14:03:8a:10:32:b2:dc:67:a6:b4:ac:cc:82:15:1f:31:e0:d5:
         fb:69:b7:3c:4f:cd:5c:be:05:00:5a:37:cd:16:7f:3e:6e:2e:
         be:0e:06:e3:85:86:3e:c1:9d:35:d0:c1:c7:75:4a:36:c4:f6:
         a3:7e:88:3c:70:35:89:3e:49:b3:fb:d3:c0:77:28:f3:85:bd:
         5e:62:81:27:9b:90:fa:a3:88:59:40:28:91:c8:f9:ce:2a:9e:
         cb:65:ca:6c:57:3d:48:15:7b:2a:3f:b3:39:5a:01:e4:d1:2a:
         98:d6:fb:3e:62:1b:bb:cd:63:d2:35:81:48:cc:d3:57:1a:85:
         2d:7c:a8:61:90:78:91:58:55:ff:c1:dc:eb:dd:fa:9e:69:0d:
         e0:b3:f3:f2:0f:9d:d8:b8:95:d1:cc:5a:e4:b6:02:49:a0:95:
         a7:1c:46:08:84:4c:1b:6a:2f:7e:39:e2:ab:e0:be:24:4e:4c:
         6f:3c:a4:f2:8e:3a:4b:29:c8:d4:93:46:34:73:18:3b:06:ec:
         f0:7a:fa:27:c8:1b:4b:ef:66:ff:15:5b:3a:5e:c5:c9:26:a0:
         9a:dd:6e:13
-----BEGIN CERTIFICATE-----
MIIGgzCCBWugAwIBAgIQEDb9gCZi4PdWc7IoNVIbsTANBgkqhkiG9w0BAQwFADB9
MQswCQYDVQQGEwJFRTEiMCAGA1UECgwZQVMgU2VydGlmaXRzZWVyaW1pc2tlc2t1
czEwMC4GA1UEAwwnVEVTVCBvZiBFRSBDZXJ0aWZpY2F0aW9uIENlbnRyZSBSb290
IENBMRgwFgYJKoZIhvcNAQkBFglwa2lAc2suZWUwIBcNMTUxMjE4MDcxMzQ0WhgP
MjAzMDEyMTcyMzU5NTlaMGsxCzAJBgNVBAYTAkVFMSIwIAYDVQQKDBlBUyBTZXJ0
aWZpdHNlZXJpbWlza2Vza3VzMRcwFQYDVQRhDA5OVFJFRS0xMDc0NzAxMzEfMB0G
A1UEAwwWVEVTVCBvZiBFU1RFSUQtU0sgMjAxNTCCAiIwDQYJKoZIhvcNAQEBBQAD
ggIPADCCAgoCggIBAMTeAFvLxmAeaOsRKaf+hlkOhW+CdEilmUIKWs+qCWVq+w8E
8PA/TohAZdUcO4KFXothmPDmfOCb0ExXcnOPCr2NndavzB39htlyYKYxkOkZi3pL
z8bZg/HvpBoy8KIg0sYdbhVPYHf6i7fuJjDac4zN1vKdVQXA6Tv5wS/e90/ZyF95
5vycxdNLticdozm5yCDMNgsEji6QNA1zIi3+C2YmnDXx6VyxhuC2R3q0xNkwtJ4e
zs1RZGxWokTNPzQc3ilGhEJlVsS8vP624hUHwufQnwrKWpc3+D+plMIO0j3E+hmh
46gIadDRweFR/dzb+CIBHRaFh0LEBjd/cDFQlBI+E8vpkhqeWp6rp1xwnhCL201M
3E1E1Mw+51Xqj7WOfY0TzjOmQJy8WJPEwU2m44KxW1SnpeEBVkgb4XYFeQHAllc7
J7JDv50BoIPpecgaqn1vKR7l//wDsL0MN1tDlBhl3x7TJ/fwMnwB1E3zVZR74TUZ
h5J49CAcFrfM4RmP/0hcDW8+4wNWMg2Qgst2qmPZmHCI/OJt5yMt0Ud5yPF8AWxV
ot3TxOBGjMiM8m6WsksFsQxp5WtA0DANGXIIfydTaTV16Mg+KpYVqFKxkvFBmfVp
6xApMaFl3dY/m56O9JHEqFpBDF+uDQIMjFJxJ4Pt7Mdk40zfL4PSw9Qco2T3AgMB
AAGjggINMIICCTAfBgNVHSMEGDAWgBS1NAqdpS8QxechDr7EsWVHGwN2/jAdBgNV
HQ4EFgQUScDyRDll1ZtGOw04YIOx1i0ohqYwDgYDVR0PAQH/BAQDAgEGMGYGA1Ud
IARfMF0wMQYKKwYBBAHOHwMBATAjMCEGCCsGAQUFBwIBFhVodHRwczovL3d3dy5z
ay5lZS9DUFMwDAYKKwYBBAHOHwMBAjAMBgorBgEEAc4fAwEDMAwGCisGAQQBzh8D
AQQwEgYDVR0TAQH/BAgwBgEB/wIBADBBBgNVHR4EOjA4oTYwBIICIiIwCocIAAAA
AAAAAAAwIocgAAAAAAAAAAAAAAAAAAAAAAAAAAAAAAAAAAAAAAAAAAAwJwYDVR0l
BCAwHgYIKwYBBQUHAwkGCCsGAQUFBwMCBggrBgEFBQcDBDCBiQYIKwYBBQUHAQEE
fTB7MCUGCCsGAQUFBzABhhlodHRwOi8vZGVtby5zay5lZS9jYV9vY3NwMFIGCCsG
AQUFBzAChkZodHRwOi8vd3d3LnNrLmVlL2NlcnRzL1RFU1Rfb2ZfRUVfQ2VydGlm
aWNhdGlvbl9DZW50cmVfUm9vdF9DQS5kZXIuY3J0MEMGA1UdHwQ8MDowOKA2oDSG
Mmh0dHBzOi8vd3d3LnNrLmVlL3JlcG9zaXRvcnkvY3Jscy90ZXN0X2VlY2NyY2Eu
Y3JsMA0GCSqGSIb3DQEBDAUAA4IBAQDBOYTpbbQuoJKAmtDPpAomDd9mKZCarIPx
AH8UXphSndMqOmIUA4oQMrLcZ6a0rMyCFR8x4NX7abc8T81cvgUAWjfNFn8+bi6+
DgbjhYY+wZ010MHHdUo2xPajfog8cDWJPkmz+9PAdyjzhb1eYoEnm5D6o4hZQCiR
yPnOKp7LZcpsVz1IFXsqP7M5WgHk0SqY1vs+Yhu7zWPSNYFIzNNXGoUtfKhhkHiR
WFX/wdzr3fqeaQ3gs/PyD53YuJXRzFrktgJJoJWnHEYIhEwbai9+OeKr4L4kTkxv
PKTyjjpLKcjUk0Y0cxg7BuzwevonyBtL72b/FVs6XsXJJqCa3W4T
-----END CERTIFICATE-----
